; Function Attrs: nounwind uwtable
define internal fastcc void @zend_error_va_list(i32 noundef %0, ptr noundef %1, i32 noundef %2, ptr noundef %3, ptr noundef %4) unnamed_addr #0 {
  %6 = tail call ptr @zend_vstrpprintf(i64 noundef 0, ptr noundef %3, ptr noundef %4)
  tail call void @zend_error_zstr_at(i32 noundef %0, ptr noundef %1, i32 noundef %2, ptr noundef %6)
  %7 = getelementptr inbounds i8, ptr %6, i64 4
  %8 = load i32, ptr %7, align 4
  %9 = and i32 %8, 64
  %.not = icmp eq i32 %9, 0
  br i1 %.not, label %10, label %19

10:                                               ; preds = %5
  %11 = load i32, ptr %6, align 4
  %12 = icmp ne i32 %11, 0
  tail call void @llvm.assume(i1 %12)
  %13 = add i32 %11, -1
  store i32 %13, ptr %6, align 4
  %14 = icmp eq i32 %13, 0
  br i1 %14, label %15, label %19

15:                                               ; preds = %10
  %16 = and i32 %8, 128
  %.not15 = icmp eq i32 %16, 0
  br i1 %.not15, label %18, label %17

17:                                               ; preds = %15
  tail call void @free(ptr noundef nonnull %6) #30
  br label %19

18:                                               ; preds = %15
  tail call void @_efree(ptr noundef nonnull %6) #30
  br label %19

19:                                               ; preds = %10, %18, %17, %5
  ret void
}